(dp0
S'a'
p1
S'poll-participation'
p2
sS'c'
p3
S'screen-particiption'
p4
sS'b'
p5
S'poll-positive'
p6
sS'e'
p7
S'Organization'
p8
sS'd'
p9
S'Location'
p10
sS'g'
p11
S'Sector'
p12
sS'f'
p13
S'Person'
p14
sS'h'
p15
S'Other'
p16
s.